; Function Attrs: null_pointer_is_valid sspstrong uwtable
define hidden nonnull ptr @Mate__scan_string(ptr noundef readonly captures(none) %0, ptr noundef captures(none) %1) local_unnamed_addr #0 {
  %3 = tail call i64 @strlen(ptr noundef %0) #34
  %4 = shl i64 %3, 32
  %sext = add i64 %4, 8589934592
  %5 = ashr exact i64 %sext, 32
  %6 = tail call noalias ptr @malloc(i64 noundef %5) #32
  %.not.i = icmp eq ptr %6, null
  br i1 %.not.i, label %10, label %.preheader.i

.preheader.i:                                     ; preds = %2
  %7 = trunc i64 %3 to i32
  %8 = icmp sgt i32 %7, 0
  br i1 %8, label %.lr.ph.preheader.i, label %._crit_edge.i

.lr.ph.preheader.i:                               ; preds = %.preheader.i
  %9 = and i64 %3, 2147483647
  tail call void @llvm.memcpy.p0.p0.i64(ptr nonnull align 1 %6, ptr readonly align 1 %0, i64 %9, i1 false)
  br label %._crit_edge.i

10:                                               ; preds = %2
  tail call fastcc void @yy_fatal_error(ptr noundef nonnull @.str.8) #27
  unreachable

._crit_edge.i:                                    ; preds = %.lr.ph.preheader.i, %.preheader.i
  %sext3 = add i64 %4, 4294967296
  %11 = ashr exact i64 %sext3, 32
  %12 = getelementptr i8, ptr %6, i64 %11
  store i8 0, ptr %12, align 1
  %13 = ashr exact i64 %4, 32
  %14 = getelementptr i8, ptr %6, i64 %13
  store i8 0, ptr %14, align 1
  %15 = tail call ptr @Mate__scan_buffer(ptr noundef nonnull %6, i64 noundef %5, ptr noundef %1)
  %.not24.i = icmp eq ptr %15, null
  br i1 %.not24.i, label %16, label %Mate__scan_bytes.exit

16:                                               ; preds = %._crit_edge.i
  tail call fastcc void @yy_fatal_error(ptr noundef nonnull @.str.9) #27
  unreachable

Mate__scan_bytes.exit:                            ; preds = %._crit_edge.i
  %17 = getelementptr inbounds nuw i8, ptr %15, i64 32
  store i32 1, ptr %17, align 8
  ret ptr %15
}